target datalayout = "e-m:e-p270:32:32-p271:32:32-p272:64:64-i64:64-i128:128-f80:128-n8:16:32:64-S128"
target triple = "x86_64-pc-linux-gnu"

%struct.rule = type { i32, i32, i32, i32, i32 }

@mon_lengths = internal constant [2 x [12 x i32]] [[12 x i32] [i32 31, i32 28, i32 31, i32 30, i32 31, i32 30, i32 31, i32 31, i32 30, i32 31, i32 30, i32 31], [12 x i32] [i32 31, i32 29, i32 31, i32 30, i32 31, i32 30, i32 31, i32 31, i32 30, i32 31, i32 30, i32 31]], align 16

; Function Attrs: nounwind uwtable
define internal i32 @transtime(i32 noundef %0, ptr noundef %1, i32 noundef %2) #0 {
  %4 = alloca i32, align 4
  %5 = alloca ptr, align 8
  %6 = alloca i32, align 4
  %7 = alloca i8, align 1
  %8 = alloca i32, align 4
  %9 = alloca i32, align 4
  %10 = alloca i32, align 4
  %11 = alloca i32, align 4
  %12 = alloca i32, align 4
  %13 = alloca i32, align 4
  %14 = alloca i32, align 4
  %15 = alloca i32, align 4
  store i32 %0, ptr %4, align 4
  store ptr %1, ptr %5, align 8
  store i32 %2, ptr %6, align 4
  call void @llvm.lifetime.start.p0(i64 1, ptr %7) #8
  call void @llvm.lifetime.start.p0(i64 4, ptr %8) #8
  call void @llvm.lifetime.start.p0(i64 4, ptr %9) #8
  call void @llvm.lifetime.start.p0(i64 4, ptr %10) #8
  call void @llvm.lifetime.start.p0(i64 4, ptr %11) #8
  call void @llvm.lifetime.start.p0(i64 4, ptr %12) #8
  call void @llvm.lifetime.start.p0(i64 4, ptr %13) #8
  call void @llvm.lifetime.start.p0(i64 4, ptr %14) #8
  call void @llvm.lifetime.start.p0(i64 4, ptr %15) #8
  store i32 0, ptr %8, align 4
  %16 = load i32, ptr %4, align 4
  %17 = srem i32 %16, 4
  %18 = icmp eq i32 %17, 0
  br i1 %18, label %19, label %29

19:                                               ; preds = %3
  %20 = load i32, ptr %4, align 4
  %21 = srem i32 %20, 100
  %22 = icmp ne i32 %21, 0
  br i1 %22, label %27, label %23

23:                                               ; preds = %19
  %24 = load i32, ptr %4, align 4
  %25 = srem i32 %24, 400
  %26 = icmp eq i32 %25, 0
  br label %27

27:                                               ; preds = %23, %19
  %28 = phi i1 [ true, %19 ], [ %26, %23 ]
  br label %29

29:                                               ; preds = %27, %3
  %30 = phi i1 [ false, %3 ], [ %28, %27 ]
  %31 = zext i1 %30 to i8
  store i8 %31, ptr %7, align 1
  %32 = load ptr, ptr %5, align 8
  %33 = getelementptr inbounds nuw %struct.rule, ptr %32, i32 0, i32 0
  %34 = load i32, ptr %33, align 4
  switch i32 %34, label %169 [
    i32 0, label %35
    i32 1, label %52
    i32 2, label %57
  ]

35:                                               ; preds = %29
  %36 = load ptr, ptr %5, align 8
  %37 = getelementptr inbounds nuw %struct.rule, ptr %36, i32 0, i32 1
  %38 = load i32, ptr %37, align 4
  %39 = sub i32 %38, 1
  %40 = mul i32 %39, 86400
  store i32 %40, ptr %8, align 4
  %41 = load i8, ptr %7, align 1, !range !4, !noundef !5
  %42 = trunc i8 %41 to i1
  br i1 %42, label %43, label %51

43:                                               ; preds = %35
  %44 = load ptr, ptr %5, align 8
  %45 = getelementptr inbounds nuw %struct.rule, ptr %44, i32 0, i32 1
  %46 = load i32, ptr %45, align 4
  %47 = icmp sge i32 %46, 60
  br i1 %47, label %48, label %51

48:                                               ; preds = %43
  %49 = load i32, ptr %8, align 4
  %50 = add i32 %49, 86400
  store i32 %50, ptr %8, align 4
  br label %51

51:                                               ; preds = %48, %43, %35
  br label %169

52:                                               ; preds = %29
  %53 = load ptr, ptr %5, align 8
  %54 = getelementptr inbounds nuw %struct.rule, ptr %53, i32 0, i32 1
  %55 = load i32, ptr %54, align 4
  %56 = mul i32 %55, 86400
  store i32 %56, ptr %8, align 4
  br label %169

57:                                               ; preds = %29
  %58 = load ptr, ptr %5, align 8
  %59 = getelementptr inbounds nuw %struct.rule, ptr %58, i32 0, i32 3
  %60 = load i32, ptr %59, align 4
  %61 = add i32 %60, 9
  %62 = srem i32 %61, 12
  %63 = add i32 %62, 1
  store i32 %63, ptr %11, align 4
  %64 = load ptr, ptr %5, align 8
  %65 = getelementptr inbounds nuw %struct.rule, ptr %64, i32 0, i32 3
  %66 = load i32, ptr %65, align 4
  %67 = icmp sle i32 %66, 2
  br i1 %67, label %68, label %71

68:                                               ; preds = %57
  %69 = load i32, ptr %4, align 4
  %70 = sub i32 %69, 1
  br label %73

71:                                               ; preds = %57
  %72 = load i32, ptr %4, align 4
  br label %73

73:                                               ; preds = %71, %68
  %74 = phi i32 [ %70, %68 ], [ %72, %71 ]
  store i32 %74, ptr %12, align 4
  %75 = load i32, ptr %12, align 4
  %76 = sdiv i32 %75, 100
  store i32 %76, ptr %13, align 4
  %77 = load i32, ptr %12, align 4
  %78 = srem i32 %77, 100
  store i32 %78, ptr %14, align 4
  %79 = load i32, ptr %11, align 4
  %80 = mul i32 26, %79
  %81 = sub i32 %80, 2
  %82 = sdiv i32 %81, 10
  %83 = add i32 %82, 1
  %84 = load i32, ptr %14, align 4
  %85 = add i32 %83, %84
  %86 = load i32, ptr %14, align 4
  %87 = sdiv i32 %86, 4
  %88 = add i32 %85, %87
  %89 = load i32, ptr %13, align 4
  %90 = sdiv i32 %89, 4
  %91 = add i32 %88, %90
  %92 = load i32, ptr %13, align 4
  %93 = mul i32 2, %92
  %94 = sub i32 %91, %93
  %95 = srem i32 %94, 7
  store i32 %95, ptr %15, align 4
  %96 = load i32, ptr %15, align 4
  %97 = icmp slt i32 %96, 0
  br i1 %97, label %98, label %101

98:                                               ; preds = %73
  %99 = load i32, ptr %15, align 4
  %100 = add i32 %99, 7
  store i32 %100, ptr %15, align 4
  br label %101

101:                                              ; preds = %98, %73
  %102 = load ptr, ptr %5, align 8
  %103 = getelementptr inbounds nuw %struct.rule, ptr %102, i32 0, i32 1
  %104 = load i32, ptr %103, align 4
  %105 = load i32, ptr %15, align 4
  %106 = sub i32 %104, %105
  store i32 %106, ptr %10, align 4
  %107 = load i32, ptr %10, align 4
  %108 = icmp slt i32 %107, 0
  br i1 %108, label %109, label %112

109:                                              ; preds = %101
  %110 = load i32, ptr %10, align 4
  %111 = add i32 %110, 7
  store i32 %111, ptr %10, align 4
  br label %112

112:                                              ; preds = %109, %101
  store i32 1, ptr %9, align 4
  br label %113

113:                                              ; preds = %139, %112
  %114 = load i32, ptr %9, align 4
  %115 = load ptr, ptr %5, align 8
  %116 = getelementptr inbounds nuw %struct.rule, ptr %115, i32 0, i32 2
  %117 = load i32, ptr %116, align 4
  %118 = icmp slt i32 %114, %117
  br i1 %118, label %119, label %142

119:                                              ; preds = %113
  %120 = load i32, ptr %10, align 4
  %121 = add i32 %120, 7
  %122 = load i8, ptr %7, align 1, !range !4, !noundef !5
  %123 = trunc i8 %122 to i1
  %124 = zext i1 %123 to i32
  %125 = sext i32 %124 to i64
  %126 = getelementptr inbounds [2 x [12 x i32]], ptr @mon_lengths, i64 0, i64 %125
  %127 = load ptr, ptr %5, align 8
  %128 = getelementptr inbounds nuw %struct.rule, ptr %127, i32 0, i32 3
  %129 = load i32, ptr %128, align 4
  %130 = sub i32 %129, 1
  %131 = sext i32 %130 to i64
  %132 = getelementptr inbounds [12 x i32], ptr %126, i64 0, i64 %131
  %133 = load i32, ptr %132, align 4
  %134 = icmp sge i32 %121, %133
  br i1 %134, label %135, label %136

135:                                              ; preds = %119
  br label %142

136:                                              ; preds = %119
  %137 = load i32, ptr %10, align 4
  %138 = add i32 %137, 7
  store i32 %138, ptr %10, align 4
  br label %139

139:                                              ; preds = %136
  %140 = load i32, ptr %9, align 4
  %141 = add i32 %140, 1
  store i32 %141, ptr %9, align 4
  br label %113, !llvm.loop !33

142:                                              ; preds = %135, %113
  %143 = load i32, ptr %10, align 4
  %144 = mul i32 %143, 86400
  store i32 %144, ptr %8, align 4
  store i32 0, ptr %9, align 4
  br label %145

145:                                              ; preds = %165, %142
  %146 = load i32, ptr %9, align 4
  %147 = load ptr, ptr %5, align 8
  %148 = getelementptr inbounds nuw %struct.rule, ptr %147, i32 0, i32 3
  %149 = load i32, ptr %148, align 4
  %150 = sub i32 %149, 1
  %151 = icmp slt i32 %146, %150
  br i1 %151, label %152, label %168

152:                                              ; preds = %145
  %153 = load i8, ptr %7, align 1, !range !4, !noundef !5
  %154 = trunc i8 %153 to i1
  %155 = zext i1 %154 to i32
  %156 = sext i32 %155 to i64
  %157 = getelementptr inbounds [2 x [12 x i32]], ptr @mon_lengths, i64 0, i64 %156
  %158 = load i32, ptr %9, align 4
  %159 = sext i32 %158 to i64
  %160 = getelementptr inbounds [12 x i32], ptr %157, i64 0, i64 %159
  %161 = load i32, ptr %160, align 4
  %162 = mul i32 %161, 86400
  %163 = load i32, ptr %8, align 4
  %164 = add i32 %163, %162
  store i32 %164, ptr %8, align 4
  br label %165

165:                                              ; preds = %152
  %166 = load i32, ptr %9, align 4
  %167 = add i32 %166, 1
  store i32 %167, ptr %9, align 4
  br label %145, !llvm.loop !34

168:                                              ; preds = %145
  br label %169

169:                                              ; preds = %29, %168, %52, %51
  %170 = load i32, ptr %8, align 4
  %171 = load ptr, ptr %5, align 8
  %172 = getelementptr inbounds nuw %struct.rule, ptr %171, i32 0, i32 4
  %173 = load i32, ptr %172, align 4
  %174 = add i32 %170, %173
  %175 = load i32, ptr %6, align 4
  %176 = add i32 %174, %175
  call void @llvm.lifetime.end.p0(i64 4, ptr %15) #8
  call void @llvm.lifetime.end.p0(i64 4, ptr %14) #8
  call void @llvm.lifetime.end.p0(i64 4, ptr %13) #8
  call void @llvm.lifetime.end.p0(i64 4, ptr %12) #8
  call void @llvm.lifetime.end.p0(i64 4, ptr %11) #8
  call void @llvm.lifetime.end.p0(i64 4, ptr %10) #8
  call void @llvm.lifetime.end.p0(i64 4, ptr %9) #8
  call void @llvm.lifetime.end.p0(i64 4, ptr %8) #8
  call void @llvm.lifetime.end.p0(i64 1, ptr %7) #8
  ret i32 %176
}