; Function Attrs: nofree norecurse nosync nounwind memory(argmem: read) uwtable
define internal fastcc i32 @transtime(i32 noundef %0, ptr noundef nonnull readonly captures(none) %1, i32 noundef %2) unnamed_addr #8 {
  %4 = and i32 %0, 3
  %5 = icmp eq i32 %4, 0
  br i1 %5, label %6, label %11

6:                                                ; preds = %3
  %7 = srem i32 %0, 100
  %.not = icmp eq i32 %7, 0
  br i1 %.not, label %8, label %11

8:                                                ; preds = %6
  %9 = srem i32 %0, 400
  %10 = icmp eq i32 %9, 0
  br label %11

11:                                               ; preds = %6, %8, %3
  %12 = phi i1 [ false, %3 ], [ true, %6 ], [ %10, %8 ]
  %13 = load i32, ptr %1, align 4
  switch i32 %13, label %.loopexit [
    i32 0, label %14
    i32 1, label %20
    i32 2, label %24
  ]

14:                                               ; preds = %11
  %15 = getelementptr inbounds nuw i8, ptr %1, i64 4
  %16 = load i32, ptr %15, align 4
  %17 = mul i32 %16, 86400
  %18 = add i32 %17, -86400
  %19 = icmp sgt i32 %16, 59
  %or.cond = select i1 %12, i1 %19, i1 false
  %spec.select54 = select i1 %or.cond, i32 %17, i32 %18
  br label %.loopexit

20:                                               ; preds = %11
  %21 = getelementptr inbounds nuw i8, ptr %1, i64 4
  %22 = load i32, ptr %21, align 4
  %23 = mul i32 %22, 86400
  br label %.loopexit

24:                                               ; preds = %11
  %25 = getelementptr inbounds nuw i8, ptr %1, i64 12
  %26 = load i32, ptr %25, align 4
  %27 = add i32 %26, 9
  %28 = srem i32 %27, 12
  %29 = icmp slt i32 %26, 3
  %30 = sext i1 %29 to i32
  %31 = add i32 %0, %30
  %.neg = sdiv i32 %31, -100
  %32 = srem i32 %31, 100
  %33 = trunc nsw i32 %28 to i16
  %34 = mul nsw i16 %33, 26
  %.lhs.trunc = add nsw i16 %34, 24
  %35 = sdiv i16 %.lhs.trunc, 10
  %narrow = add nsw i16 %35, 1
  %36 = sext i16 %narrow to i32
  %.lhs.trunc55 = trunc nsw i32 %32 to i8
  %37 = sdiv i8 %.lhs.trunc55, 4
  %.sext56 = sext i8 %37 to i32
  %38 = sdiv i32 %31, 400
  %.neg52 = shl nsw i32 %.neg, 1
  %39 = add nsw i32 %38, %32
  %40 = add nsw i32 %39, %.neg52
  %41 = add nsw i32 %40, %.sext56
  %42 = add nsw i32 %41, %36
  %43 = srem i32 %42, 7
  %44 = icmp slt i32 %43, 0
  %45 = add nsw i32 %43, 7
  %spec.select = select i1 %44, i32 %45, i32 %43
  %46 = getelementptr inbounds nuw i8, ptr %1, i64 4
  %47 = load i32, ptr %46, align 4
  %48 = sub i32 %47, %spec.select
  %49 = icmp slt i32 %48, 0
  %50 = add nsw i32 %48, 7
  %.045 = select i1 %49, i32 %50, i32 %48
  %51 = getelementptr inbounds nuw i8, ptr %1, i64 8
  %52 = load i32, ptr %51, align 4
  %53 = icmp sgt i32 %52, 1
  br i1 %53, label %.lr.ph, label %.._crit_edge_crit_edge

.._crit_edge_crit_edge:                           ; preds = %24
  %.pre = add i32 %26, -1
  br label %._crit_edge

.lr.ph:                                           ; preds = %24
  %54 = zext i1 %12 to i64
  %55 = add i32 %26, -1
  %56 = sext i32 %55 to i64
  %57 = getelementptr inbounds [2 x [12 x i32]], ptr @mon_lengths, i64 0, i64 %54, i64 %56
  %58 = load i32, ptr %57, align 4
  %59 = mul i32 %52, 7
  %60 = add i32 %.045, %59
  %61 = add i32 %60, -7
  br label %64

62:                                               ; preds = %64
  %63 = add nuw nsw i32 %.04358, 1
  %exitcond.not = icmp eq i32 %63, %52
  br i1 %exitcond.not, label %._crit_edge, label %64, !llvm.loop !36

64:                                               ; preds = %.lr.ph, %62
  %.04358 = phi i32 [ 1, %.lr.ph ], [ %63, %62 ]
  %.14657 = phi i32 [ %.045, %.lr.ph ], [ %65, %62 ]
  %65 = add i32 %.14657, 7
  %.not53 = icmp slt i32 %65, %58
  br i1 %.not53, label %62, label %._crit_edge

._crit_edge:                                      ; preds = %62, %64, %.._crit_edge_crit_edge
  %.pre-phi = phi i32 [ %.pre, %.._crit_edge_crit_edge ], [ %55, %64 ], [ %55, %62 ]
  %.146.lcssa = phi i32 [ %.045, %.._crit_edge_crit_edge ], [ %61, %62 ], [ %.14657, %64 ]
  %66 = mul i32 %.146.lcssa, 86400
  %67 = icmp sgt i32 %.pre-phi, 0
  br i1 %67, label %.lr.ph64, label %.loopexit

.lr.ph64:                                         ; preds = %._crit_edge
  %68 = zext i1 %12 to i64
  %wide.trip.count = zext nneg i32 %.pre-phi to i64
  br label %69

69:                                               ; preds = %.lr.ph64, %69
  %indvars.iv = phi i64 [ 0, %.lr.ph64 ], [ %indvars.iv.next, %69 ]
  %.162 = phi i32 [ %66, %.lr.ph64 ], [ %73, %69 ]
  %70 = getelementptr inbounds nuw [2 x [12 x i32]], ptr @mon_lengths, i64 0, i64 %68, i64 %indvars.iv
  %71 = load i32, ptr %70, align 4
  %72 = mul i32 %71, 86400
  %73 = add i32 %72, %.162
  %indvars.iv.next = add nuw nsw i64 %indvars.iv, 1
  %exitcond67.not = icmp eq i64 %indvars.iv.next, %wide.trip.count
  br i1 %exitcond67.not, label %.loopexit, label %69, !llvm.loop !37

.loopexit:                                        ; preds = %69, %._crit_edge, %14, %20, %11
  %.042 = phi i32 [ 0, %11 ], [ %23, %20 ], [ %spec.select54, %14 ], [ %66, %._crit_edge ], [ %73, %69 ]
  %74 = getelementptr inbounds nuw i8, ptr %1, i64 16
  %75 = load i32, ptr %74, align 4
  %76 = add i32 %.042, %2
  %77 = add i32 %76, %75
  ret i32 %77
}